target datalayout = "e-m:e-p270:32:32-p271:32:32-p272:64:64-i64:64-i128:128-f80:128-n8:16:32:64-S128"
target triple = "x86_64-pc-linux-gnu"

%"class.mitsuba::Struct" = type { %"class.mitsuba::Object.base", %"class.std::__1::vector", i8, i32 }
%"class.mitsuba::Object.base" = type <{ ptr, %"struct.std::__1::atomic" }>
%"struct.std::__1::atomic" = type { %"struct.std::__1::__atomic_base" }
%"struct.std::__1::__atomic_base" = type { %"struct.std::__1::__atomic_base.0" }
%"struct.std::__1::__atomic_base.0" = type { %"struct.std::__1::__cxx_atomic_impl" }
%"struct.std::__1::__cxx_atomic_impl" = type { %"struct.std::__1::__cxx_atomic_base_impl" }
%"struct.std::__1::__cxx_atomic_base_impl" = type { i32 }
%"class.std::__1::vector" = type { ptr, ptr, %"class.std::__1::__compressed_pair" }
%"class.std::__1::__compressed_pair" = type { %"struct.std::__1::__compressed_pair_elem" }
%"struct.std::__1::__compressed_pair_elem" = type { ptr }
%"struct.mitsuba::Struct::Field" = type { %"class.std::__1::basic_string", i32, i64, i64, i32, double, %"class.std::__1::vector.9" }
%"class.std::__1::basic_string" = type { %"class.std::__1::__compressed_pair.2" }
%"class.std::__1::__compressed_pair.2" = type { %"struct.std::__1::__compressed_pair_elem.3" }
%"struct.std::__1::__compressed_pair_elem.3" = type { %"struct.std::__1::basic_string<char>::__rep" }
%"struct.std::__1::basic_string<char>::__rep" = type { %union.anon }
%union.anon = type { %"struct.std::__1::basic_string<char>::__long" }
%"struct.std::__1::basic_string<char>::__long" = type { %struct.anon.4, i64, ptr }
%struct.anon.4 = type { i64 }
%"class.std::__1::vector.9" = type { ptr, ptr, %"class.std::__1::__compressed_pair.10" }
%"class.std::__1::__compressed_pair.10" = type { %"struct.std::__1::__compressed_pair_elem.11" }
%"struct.std::__1::__compressed_pair_elem.11" = type { ptr }
%"class.std::__1::__wrap_iter" = type { ptr }
%"struct.std::__1::__less" = type { i8 }

; Function Attrs: mustprogress nounwind uwtable
define linkonce_odr hidden noundef zeroext i1 @_ZNKSt3__16__lessIvvEclB8ne190000ImmEEbRKT_RKT0_(ptr noundef nonnull align 1 dereferenceable(1) %0, ptr noundef nonnull align 8 dereferenceable(8) %1, ptr noundef nonnull align 8 dereferenceable(8) %2) #1 comdat align 2 {
  %4 = alloca ptr, align 8
  %5 = alloca ptr, align 8
  %6 = alloca ptr, align 8
  store ptr %0, ptr %4, align 8
  store ptr %1, ptr %5, align 8
  store ptr %2, ptr %6, align 8
  %7 = load ptr, ptr %5, align 8
  %8 = load i64, ptr %7, align 8
  %9 = load ptr, ptr %6, align 8
  %10 = load i64, ptr %9, align 8
  %11 = icmp ult i64 %8, %10
  ret i1 %11
}

; Function Attrs: mustprogress nounwind uwtable
define linkonce_odr hidden noundef ptr @_ZNKSt3__111__wrap_iterIPKN7mitsuba6Struct5FieldEE4baseB8ne190000Ev(ptr noundef nonnull align 8 dereferenceable(8) %0) #1 comdat align 2 {
  %2 = alloca ptr, align 8
  store ptr %0, ptr %2, align 8
  %3 = load ptr, ptr %2, align 8
  %4 = getelementptr inbounds %"class.std::__1::__wrap_iter", ptr %3, i32 0, i32 0
  %5 = load ptr, ptr %4, align 8
  ret ptr %5
}

; Function Attrs: mustprogress nounwind uwtable
define linkonce_odr hidden void @_ZNSt3__111__wrap_iterIPKN7mitsuba6Struct5FieldEEC2B8ne190000ES5_(ptr noundef nonnull align 8 dereferenceable(8) %0, ptr noundef %1) unnamed_addr #1 comdat align 2 {
  %3 = alloca ptr, align 8
  %4 = alloca ptr, align 8
  store ptr %0, ptr %3, align 8
  store ptr %1, ptr %4, align 8
  %5 = load ptr, ptr %3, align 8
  %6 = getelementptr inbounds %"class.std::__1::__wrap_iter", ptr %5, i32 0, i32 0
  %7 = load ptr, ptr %4, align 8
  store ptr %7, ptr %6, align 8
  ret void
}

; Function Attrs: mustprogress uwtable
define linkonce_odr hidden noundef nonnull align 8 dereferenceable(8) ptr @_ZNSt3__13maxB8ne190000ImNS_6__lessIvvEEEERKT_S5_S5_T0_(ptr noundef nonnull align 8 dereferenceable(8) %0, ptr noundef nonnull align 8 dereferenceable(8) %1) #0 comdat {
  %3 = alloca %"struct.std::__1::__less", align 1
  %4 = alloca ptr, align 8
  %5 = alloca ptr, align 8
  store ptr %0, ptr %4, align 8
  store ptr %1, ptr %5, align 8
  %6 = load ptr, ptr %4, align 8
  %7 = load ptr, ptr %5, align 8
  %8 = call noundef zeroext i1 @_ZNKSt3__16__lessIvvEclB8ne190000ImmEEbRKT_RKT0_(ptr noundef nonnull align 1 dereferenceable(1) %3, ptr noundef nonnull align 8 dereferenceable(8) %6, ptr noundef nonnull align 8 dereferenceable(8) %7)
  br i1 %8, label %9, label %11

9:                                                ; preds = %2
  %10 = load ptr, ptr %5, align 8
  br label %13

11:                                               ; preds = %2
  %12 = load ptr, ptr %4, align 8
  br label %13

13:                                               ; preds = %11, %9
  %14 = phi ptr [ %10, %9 ], [ %12, %11 ]
  ret ptr %14
}

; Function Attrs: mustprogress nounwind uwtable
define linkonce_odr hidden noundef zeroext i1 @_ZNSt3__1eqB8ne190000IPKN7mitsuba6Struct5FieldEEEbRKNS_11__wrap_iterIT_EESA_(ptr noundef nonnull align 8 dereferenceable(8) %0, ptr noundef nonnull align 8 dereferenceable(8) %1) #1 comdat {
  %3 = alloca ptr, align 8
  %4 = alloca ptr, align 8
  store ptr %0, ptr %3, align 8
  store ptr %1, ptr %4, align 8
  %5 = load ptr, ptr %3, align 8
  %6 = call noundef ptr @_ZNKSt3__111__wrap_iterIPKN7mitsuba6Struct5FieldEE4baseB8ne190000Ev(ptr noundef nonnull align 8 dereferenceable(8) %5) #7
  %7 = load ptr, ptr %4, align 8
  %8 = call noundef ptr @_ZNKSt3__111__wrap_iterIPKN7mitsuba6Struct5FieldEE4baseB8ne190000Ev(ptr noundef nonnull align 8 dereferenceable(8) %7) #7
  %9 = icmp eq ptr %6, %8
  ret i1 %9
}

; Function Attrs: mustprogress nounwind uwtable
define linkonce_odr hidden ptr @_ZNKSt3__16vectorIN7mitsuba6Struct5FieldENS_9allocatorIS3_EEE11__make_iterB8ne190000EPKS3_(ptr noundef nonnull align 8 dereferenceable(24) %0, ptr noundef %1) #1 comdat align 2 {
  %3 = alloca %"class.std::__1::__wrap_iter", align 8
  %4 = alloca ptr, align 8
  %5 = alloca ptr, align 8
  store ptr %0, ptr %4, align 8
  store ptr %1, ptr %5, align 8
  %6 = load ptr, ptr %5, align 8
  call void @_ZNSt3__111__wrap_iterIPKN7mitsuba6Struct5FieldEEC2B8ne190000ES5_(ptr noundef nonnull align 8 dereferenceable(8) %3, ptr noundef %6) #7
  %7 = getelementptr inbounds %"class.std::__1::__wrap_iter", ptr %3, i32 0, i32 0
  %8 = load ptr, ptr %7, align 8
  ret ptr %8
}

; Function Attrs: mustprogress nounwind uwtable
define linkonce_odr hidden noundef nonnull align 8 dereferenceable(8) ptr @_ZNSt3__111__wrap_iterIPKN7mitsuba6Struct5FieldEEppB8ne190000Ev(ptr noundef nonnull align 8 dereferenceable(8) %0) #1 comdat align 2 {
  %2 = alloca ptr, align 8
  store ptr %0, ptr %2, align 8
  %3 = load ptr, ptr %2, align 8
  %4 = getelementptr inbounds %"class.std::__1::__wrap_iter", ptr %3, i32 0, i32 0
  %5 = load ptr, ptr %4, align 8
  %6 = getelementptr inbounds %"struct.mitsuba::Struct::Field", ptr %5, i32 1
  store ptr %6, ptr %4, align 8
  ret ptr %3
}

; Function Attrs: mustprogress uwtable
define linkonce_odr hidden noundef nonnull align 8 dereferenceable(8) ptr @_ZNSt3__13maxB8ne190000ImEERKT_S3_S3_(ptr noundef nonnull align 8 dereferenceable(8) %0, ptr noundef nonnull align 8 dereferenceable(8) %1) #0 comdat {
  %3 = alloca ptr, align 8
  %4 = alloca ptr, align 8
  store ptr %0, ptr %3, align 8
  store ptr %1, ptr %4, align 8
  %5 = load ptr, ptr %3, align 8
  %6 = load ptr, ptr %4, align 8
  %7 = call noundef nonnull align 8 dereferenceable(8) ptr @_ZNSt3__13maxB8ne190000ImNS_6__lessIvvEEEERKT_S5_S5_T0_(ptr noundef nonnull align 8 dereferenceable(8) %5, ptr noundef nonnull align 8 dereferenceable(8) %6)
  ret ptr %7
}

; Function Attrs: mustprogress nounwind uwtable
define linkonce_odr hidden noundef nonnull align 8 dereferenceable(88) ptr @_ZNKSt3__111__wrap_iterIPKN7mitsuba6Struct5FieldEEdeB8ne190000Ev(ptr noundef nonnull align 8 dereferenceable(8) %0) #1 comdat align 2 {
  %2 = alloca ptr, align 8
  store ptr %0, ptr %2, align 8
  %3 = load ptr, ptr %2, align 8
  %4 = getelementptr inbounds %"class.std::__1::__wrap_iter", ptr %3, i32 0, i32 0
  %5 = load ptr, ptr %4, align 8
  ret ptr %5
}

; Function Attrs: mustprogress nounwind uwtable
define linkonce_odr hidden noundef zeroext i1 @_ZNSt3__1neB8ne190000IPKN7mitsuba6Struct5FieldEEEbRKNS_11__wrap_iterIT_EESA_(ptr noundef nonnull align 8 dereferenceable(8) %0, ptr noundef nonnull align 8 dereferenceable(8) %1) #1 comdat {
  %3 = alloca ptr, align 8
  %4 = alloca ptr, align 8
  store ptr %0, ptr %3, align 8
  store ptr %1, ptr %4, align 8
  %5 = load ptr, ptr %3, align 8
  %6 = load ptr, ptr %4, align 8
  %7 = call noundef zeroext i1 @_ZNSt3__1eqB8ne190000IPKN7mitsuba6Struct5FieldEEEbRKNS_11__wrap_iterIT_EESA_(ptr noundef nonnull align 8 dereferenceable(8) %5, ptr noundef nonnull align 8 dereferenceable(8) %6) #7
  %8 = xor i1 %7, true
  ret i1 %8
}

; Function Attrs: mustprogress nounwind uwtable
define linkonce_odr hidden ptr @_ZNKSt3__16vectorIN7mitsuba6Struct5FieldENS_9allocatorIS3_EEE3endB8ne190000Ev(ptr noundef nonnull align 8 dereferenceable(24) %0) #1 comdat align 2 {
  %2 = alloca %"class.std::__1::__wrap_iter", align 8
  %3 = alloca ptr, align 8
  store ptr %0, ptr %3, align 8
  %4 = load ptr, ptr %3, align 8
  %5 = getelementptr inbounds %"class.std::__1::vector", ptr %4, i32 0, i32 1
  %6 = load ptr, ptr %5, align 8
  %7 = call ptr @_ZNKSt3__16vectorIN7mitsuba6Struct5FieldENS_9allocatorIS3_EEE11__make_iterB8ne190000EPKS3_(ptr noundef nonnull align 8 dereferenceable(24) %4, ptr noundef %6) #7
  %8 = getelementptr inbounds %"class.std::__1::__wrap_iter", ptr %2, i32 0, i32 0
  store ptr %7, ptr %8, align 8
  %9 = getelementptr inbounds %"class.std::__1::__wrap_iter", ptr %2, i32 0, i32 0
  %10 = load ptr, ptr %9, align 8
  ret ptr %10
}

; Function Attrs: mustprogress nounwind uwtable
define linkonce_odr hidden ptr @_ZNKSt3__16vectorIN7mitsuba6Struct5FieldENS_9allocatorIS3_EEE5beginB8ne190000Ev(ptr noundef nonnull align 8 dereferenceable(24) %0) #1 comdat align 2 {
  %2 = alloca %"class.std::__1::__wrap_iter", align 8
  %3 = alloca ptr, align 8
  store ptr %0, ptr %3, align 8
  %4 = load ptr, ptr %3, align 8
  %5 = getelementptr inbounds %"class.std::__1::vector", ptr %4, i32 0, i32 0
  %6 = load ptr, ptr %5, align 8
  %7 = call ptr @_ZNKSt3__16vectorIN7mitsuba6Struct5FieldENS_9allocatorIS3_EEE11__make_iterB8ne190000EPKS3_(ptr noundef nonnull align 8 dereferenceable(24) %4, ptr noundef %6) #7
  %8 = getelementptr inbounds %"class.std::__1::__wrap_iter", ptr %2, i32 0, i32 0
  store ptr %7, ptr %8, align 8
  %9 = getelementptr inbounds %"class.std::__1::__wrap_iter", ptr %2, i32 0, i32 0
  %10 = load ptr, ptr %9, align 8
  ret ptr %10
}

; Function Attrs: mustprogress uwtable
define linkonce_odr hidden noundef i64 @_ZN7mitsuba4math6moduloImEET_S2_S2_(i64 noundef %0, i64 noundef %1) #0 comdat {
  %3 = alloca ptr, align 8
  %4 = alloca ptr, align 8
  %5 = alloca ptr, align 8
  %6 = alloca i64, align 8
  %7 = alloca i64, align 8
  %8 = alloca i64, align 8
  %9 = alloca i8, align 1
  %10 = alloca i64, align 8
  store i64 %0, ptr %6, align 8
  store i64 %1, ptr %7, align 8
  %11 = load i64, ptr %6, align 8
  %12 = load i64, ptr %6, align 8
  %13 = load i64, ptr %7, align 8
  %14 = udiv i64 %12, %13
  %15 = load i64, ptr %7, align 8
  %16 = mul i64 %14, %15
  %17 = sub i64 %11, %16
  store i64 %17, ptr %8, align 8
  %18 = load i64, ptr %8, align 8
  %19 = icmp ult i64 %18, 0
  %20 = zext i1 %19 to i8
  store i8 %20, ptr %9, align 1
  %21 = load i64, ptr %8, align 8
  %22 = load i64, ptr %7, align 8
  %23 = add i64 %21, %22
  store i64 %23, ptr %10, align 8
  store ptr %9, ptr %3, align 8
  store ptr %10, ptr %4, align 8
  store ptr %8, ptr %5, align 8
  %24 = load ptr, ptr %3, align 8
  %25 = load i8, ptr %24, align 1
  %26 = trunc i8 %25 to i1
  br i1 %26, label %27, label %30

27:                                               ; preds = %2
  %28 = load ptr, ptr %4, align 8
  %29 = load i64, ptr %28, align 8
  br label %33

30:                                               ; preds = %2
  %31 = load ptr, ptr %5, align 8
  %32 = load i64, ptr %31, align 8
  br label %33

33:                                               ; preds = %30, %27
  %34 = phi i64 [ %29, %27 ], [ %32, %30 ]
  ret i64 %34
}

; Function Attrs: mustprogress uwtable
define noundef i64 @_ZNK7mitsuba6Struct9alignmentEv(ptr noundef nonnull align 8 dereferenceable(48) %0) #0 align 2 {
  %2 = alloca i64, align 8
  %3 = alloca ptr, align 8
  %4 = alloca i64, align 8
  %5 = alloca ptr, align 8
  %6 = alloca %"class.std::__1::__wrap_iter", align 8
  %7 = alloca %"class.std::__1::__wrap_iter", align 8
  %8 = alloca ptr, align 8
  store ptr %0, ptr %3, align 8
  %9 = load ptr, ptr %3, align 8
  %10 = getelementptr inbounds %"class.mitsuba::Struct", ptr %9, i32 0, i32 2
  %11 = load i8, ptr %10, align 8
  %12 = trunc i8 %11 to i1
  br i1 %12, label %13, label %14

13:                                               ; preds = %1
  store i64 1, ptr %2, align 8
  br label %34

14:                                               ; preds = %1
  store i64 1, ptr %4, align 8
  %15 = getelementptr inbounds %"class.mitsuba::Struct", ptr %9, i32 0, i32 1
  store ptr %15, ptr %5, align 8
  %16 = load ptr, ptr %5, align 8
  %17 = call ptr @_ZNKSt3__16vectorIN7mitsuba6Struct5FieldENS_9allocatorIS3_EEE5beginB8ne190000Ev(ptr noundef nonnull align 8 dereferenceable(24) %16) #7
  %18 = getelementptr inbounds %"class.std::__1::__wrap_iter", ptr %6, i32 0, i32 0
  store ptr %17, ptr %18, align 8
  %19 = load ptr, ptr %5, align 8
  %20 = call ptr @_ZNKSt3__16vectorIN7mitsuba6Struct5FieldENS_9allocatorIS3_EEE3endB8ne190000Ev(ptr noundef nonnull align 8 dereferenceable(24) %19) #7
  %21 = getelementptr inbounds %"class.std::__1::__wrap_iter", ptr %7, i32 0, i32 0
  store ptr %20, ptr %21, align 8
  br label %22

22:                                               ; preds = %30, %14
  %23 = call noundef zeroext i1 @_ZNSt3__1neB8ne190000IPKN7mitsuba6Struct5FieldEEEbRKNS_11__wrap_iterIT_EESA_(ptr noundef nonnull align 8 dereferenceable(8) %6, ptr noundef nonnull align 8 dereferenceable(8) %7) #7
  br i1 %23, label %24, label %32

24:                                               ; preds = %22
  %25 = call noundef nonnull align 8 dereferenceable(88) ptr @_ZNKSt3__111__wrap_iterIPKN7mitsuba6Struct5FieldEEdeB8ne190000Ev(ptr noundef nonnull align 8 dereferenceable(8) %6) #7
  store ptr %25, ptr %8, align 8
  %26 = load ptr, ptr %8, align 8
  %27 = getelementptr inbounds %"struct.mitsuba::Struct::Field", ptr %26, i32 0, i32 2
  %28 = call noundef nonnull align 8 dereferenceable(8) ptr @_ZNSt3__13maxB8ne190000ImEERKT_S3_S3_(ptr noundef nonnull align 8 dereferenceable(8) %4, ptr noundef nonnull align 8 dereferenceable(8) %27)
  %29 = load i64, ptr %28, align 8
  store i64 %29, ptr %4, align 8
  br label %30

30:                                               ; preds = %24
  %31 = call noundef nonnull align 8 dereferenceable(8) ptr @_ZNSt3__111__wrap_iterIPKN7mitsuba6Struct5FieldEEppB8ne190000Ev(ptr noundef nonnull align 8 dereferenceable(8) %6) #7
  br label %22

32:                                               ; preds = %22
  %33 = load i64, ptr %4, align 8
  store i64 %33, ptr %2, align 8
  br label %34

34:                                               ; preds = %32, %13
  %35 = load i64, ptr %2, align 8
  ret i64 %35
}

; Function Attrs: mustprogress nounwind uwtable
define linkonce_odr hidden noundef nonnull align 8 dereferenceable(88) ptr @_ZNKSt3__16vectorIN7mitsuba6Struct5FieldENS_9allocatorIS3_EEEixB8ne190000Em(ptr noundef nonnull align 8 dereferenceable(24) %0, i64 noundef %1) #1 comdat align 2 {
  %3 = alloca ptr, align 8
  %4 = alloca i64, align 8
  store ptr %0, ptr %3, align 8
  store i64 %1, ptr %4, align 8
  %5 = load ptr, ptr %3, align 8
  %6 = getelementptr inbounds %"class.std::__1::vector", ptr %5, i32 0, i32 0
  %7 = load ptr, ptr %6, align 8
  %8 = load i64, ptr %4, align 8
  %9 = getelementptr inbounds %"struct.mitsuba::Struct::Field", ptr %7, i64 %8
  ret ptr %9
}

; Function Attrs: mustprogress nounwind uwtable
define linkonce_odr hidden noundef i64 @_ZNKSt3__16vectorIN7mitsuba6Struct5FieldENS_9allocatorIS3_EEE4sizeB8ne190000Ev(ptr noundef nonnull align 8 dereferenceable(24) %0) #1 comdat align 2 {
  %2 = alloca ptr, align 8
  store ptr %0, ptr %2, align 8
  %3 = load ptr, ptr %2, align 8
  %4 = getelementptr inbounds %"class.std::__1::vector", ptr %3, i32 0, i32 1
  %5 = load ptr, ptr %4, align 8
  %6 = getelementptr inbounds %"class.std::__1::vector", ptr %3, i32 0, i32 0
  %7 = load ptr, ptr %6, align 8
  %8 = ptrtoint ptr %5 to i64
  %9 = ptrtoint ptr %7 to i64
  %10 = sub i64 %8, %9
  %11 = sdiv exact i64 %10, 88
  ret i64 %11
}

; Function Attrs: mustprogress nounwind uwtable
define linkonce_odr hidden noundef zeroext i1 @_ZNKSt3__16vectorIN7mitsuba6Struct5FieldENS_9allocatorIS3_EEE5emptyB8ne190000Ev(ptr noundef nonnull align 8 dereferenceable(24) %0) #1 comdat align 2 {
  %2 = alloca ptr, align 8
  store ptr %0, ptr %2, align 8
  %3 = load ptr, ptr %2, align 8
  %4 = getelementptr inbounds %"class.std::__1::vector", ptr %3, i32 0, i32 0
  %5 = load ptr, ptr %4, align 8
  %6 = getelementptr inbounds %"class.std::__1::vector", ptr %3, i32 0, i32 1
  %7 = load ptr, ptr %6, align 8
  %8 = icmp eq ptr %5, %7
  ret i1 %8
}

; Function Attrs: mustprogress uwtable
define noundef i64 @_ZNK7mitsuba6Struct4sizeEv(ptr noundef nonnull align 8 dereferenceable(48) %0) #0 align 2 {
  %2 = alloca i64, align 8
  %3 = alloca ptr, align 8
  %4 = alloca ptr, align 8
  %5 = alloca i64, align 8
  %6 = alloca i64, align 8
  store ptr %0, ptr %3, align 8
  %7 = load ptr, ptr %3, align 8
  %8 = getelementptr inbounds %"class.mitsuba::Struct", ptr %7, i32 0, i32 1
  %9 = call noundef zeroext i1 @_ZNKSt3__16vectorIN7mitsuba6Struct5FieldENS_9allocatorIS3_EEE5emptyB8ne190000Ev(ptr noundef nonnull align 8 dereferenceable(24) %8) #7
  br i1 %9, label %10, label %11

10:                                               ; preds = %1
  store i64 0, ptr %2, align 8
  br label %38

11:                                               ; preds = %1
  %12 = getelementptr inbounds %"class.mitsuba::Struct", ptr %7, i32 0, i32 1
  %13 = getelementptr inbounds %"class.mitsuba::Struct", ptr %7, i32 0, i32 1
  %14 = call noundef i64 @_ZNKSt3__16vectorIN7mitsuba6Struct5FieldENS_9allocatorIS3_EEE4sizeB8ne190000Ev(ptr noundef nonnull align 8 dereferenceable(24) %13) #7
  %15 = sub i64 %14, 1
  %16 = call noundef nonnull align 8 dereferenceable(88) ptr @_ZNKSt3__16vectorIN7mitsuba6Struct5FieldENS_9allocatorIS3_EEEixB8ne190000Em(ptr noundef nonnull align 8 dereferenceable(24) %12, i64 noundef %15) #7
  store ptr %16, ptr %4, align 8
  %17 = load ptr, ptr %4, align 8
  %18 = getelementptr inbounds %"struct.mitsuba::Struct::Field", ptr %17, i32 0, i32 3
  %19 = load i64, ptr %18, align 8
  %20 = load ptr, ptr %4, align 8
  %21 = getelementptr inbounds %"struct.mitsuba::Struct::Field", ptr %20, i32 0, i32 2
  %22 = load i64, ptr %21, align 8
  %23 = add i64 %19, %22
  store i64 %23, ptr %5, align 8
  %24 = getelementptr inbounds %"class.mitsuba::Struct", ptr %7, i32 0, i32 2
  %25 = load i8, ptr %24, align 8
  %26 = trunc i8 %25 to i1
  br i1 %26, label %36, label %27

27:                                               ; preds = %11
  %28 = call noundef i64 @_ZNK7mitsuba6Struct9alignmentEv(ptr noundef nonnull align 8 dereferenceable(48) %7)
  store i64 %28, ptr %6, align 8
  %29 = load i64, ptr %6, align 8
  %30 = load i64, ptr %5, align 8
  %31 = sub i64 %29, %30
  %32 = load i64, ptr %6, align 8
  %33 = call noundef i64 @_ZN7mitsuba4math6moduloImEET_S2_S2_(i64 noundef %31, i64 noundef %32)
  %34 = load i64, ptr %5, align 8
  %35 = add i64 %34, %33
  store i64 %35, ptr %5, align 8
  br label %36

36:                                               ; preds = %27, %11
  %37 = load i64, ptr %5, align 8
  store i64 %37, ptr %2, align 8
  br label %38

38:                                               ; preds = %36, %10
  %39 = load i64, ptr %2, align 8
  ret i64 %39
}