; Function Attrs: mustprogress nofree norecurse nosync nounwind willreturn memory(read, inaccessiblemem: none) uwtable
define noundef i64 @_ZNK7mitsuba6Struct4sizeEv(ptr nocapture noundef nonnull readonly align 8 dereferenceable(48) %0) local_unnamed_addr #3 align 2 {
  %2 = getelementptr inbounds i8, ptr %0, i64 16
  %3 = load ptr, ptr %2, align 8
  %4 = getelementptr inbounds i8, ptr %0, i64 24
  %5 = load ptr, ptr %4, align 8
  %6 = icmp eq ptr %3, %5
  br i1 %6, label %26, label %7

7:                                                ; preds = %1
  %8 = ptrtoint ptr %5 to i64
  %9 = ptrtoint ptr %3 to i64
  %10 = sub i64 %8, %9
  %11 = getelementptr i8, ptr %3, i64 %10
  %12 = getelementptr i8, ptr %11, i64 -48
  %13 = load i64, ptr %12, align 8
  %14 = getelementptr i8, ptr %11, i64 -56
  %15 = load i64, ptr %14, align 8
  %16 = add i64 %15, %13
  %17 = getelementptr inbounds i8, ptr %0, i64 40
  %18 = load i8, ptr %17, align 8
  %19 = and i8 %18, 1
  %.not = icmp eq i8 %19, 0
  br i1 %.not, label %.lr.ph.i, label %26

.lr.ph.i:                                         ; preds = %7, %.lr.ph.i
  %.01014.i = phi i64 [ %.sroa.speculated.i, %.lr.ph.i ], [ 1, %7 ]
  %.sroa.04.013.i = phi ptr [ %22, %.lr.ph.i ], [ %3, %7 ]
  %20 = getelementptr inbounds i8, ptr %.sroa.04.013.i, i64 32
  %21 = load i64, ptr %20, align 8
  %.sroa.speculated.i = tail call i64 @llvm.umax.i64(i64 %.01014.i, i64 %21)
  %22 = getelementptr inbounds i8, ptr %.sroa.04.013.i, i64 88
  %.not11.i = icmp eq ptr %22, %5
  br i1 %.not11.i, label %_ZNK7mitsuba6Struct9alignmentEv.exit, label %.lr.ph.i

_ZNK7mitsuba6Struct9alignmentEv.exit:             ; preds = %.lr.ph.i
  %23 = sub i64 %.sroa.speculated.i, %16
  %24 = urem i64 %23, %.sroa.speculated.i
  %25 = add i64 %24, %16
  br label %26

26:                                               ; preds = %7, %_ZNK7mitsuba6Struct9alignmentEv.exit, %1
  %.0 = phi i64 [ 0, %1 ], [ %16, %7 ], [ %25, %_ZNK7mitsuba6Struct9alignmentEv.exit ]
  ret i64 %.0
}